ARM GAS  C:\Users\wup15j\AppData\Local\Temp\ccIg7IDZ.s 			page 1


   1              		.cpu cortex-m3
   2              		.arch armv7-m
   3              		.fpu softvfp
   4              		.eabi_attribute 20, 1
   5              		.eabi_attribute 21, 1
   6              		.eabi_attribute 23, 3
   7              		.eabi_attribute 24, 1
   8              		.eabi_attribute 25, 1
   9              		.eabi_attribute 26, 1
  10              		.eabi_attribute 30, 1
  11              		.eabi_attribute 34, 1
  12              		.eabi_attribute 18, 4
  13              		.file	"can.c"
  14              		.text
  15              	.Ltext0:
  16              		.cfi_sections	.debug_frame
  17              		.section	.text.MX_CAN_Init,"ax",%progbits
  18              		.align	1
  19              		.global	MX_CAN_Init
  20              		.syntax unified
  21              		.thumb
  22              		.thumb_func
  24              	MX_CAN_Init:
  25              	.LFB65:
  26              		.file 1 "Src/can.c"
   1:Src/can.c     **** /**
   2:Src/can.c     ****  ******************************************************************************
   3:Src/can.c     ****  * File Name          : CAN.c
   4:Src/can.c     ****  * Description        : This file provides code for the configuration
   5:Src/can.c     ****  *                      of the CAN instances.
   6:Src/can.c     ****  ******************************************************************************
   7:Src/can.c     ****  * @attention
   8:Src/can.c     ****  *
   9:Src/can.c     ****  * <h2><center>&copy; Copyright (c) 2024 STMicroelectronics.
  10:Src/can.c     ****  * All rights reserved.</center></h2>
  11:Src/can.c     ****  *
  12:Src/can.c     ****  * This software component is licensed by ST under BSD 3-Clause license,
  13:Src/can.c     ****  * the "License"; You may not use this file except in compliance with the
  14:Src/can.c     ****  * License. You may obtain a copy of the License at:
  15:Src/can.c     ****  *                        opensource.org/licenses/BSD-3-Clause
  16:Src/can.c     ****  *
  17:Src/can.c     ****  ******************************************************************************
  18:Src/can.c     ****  */
  19:Src/can.c     **** 
  20:Src/can.c     **** /* Includes ------------------------------------------------------------------*/
  21:Src/can.c     **** #include "can.h"
  22:Src/can.c     **** 
  23:Src/can.c     **** /* USER CODE BEGIN 0 */
  24:Src/can.c     **** 
  25:Src/can.c     **** /* USER CODE END 0 */
  26:Src/can.c     **** 
  27:Src/can.c     **** CAN_HandleTypeDef hcan;
  28:Src/can.c     **** 
  29:Src/can.c     **** /* CAN init function */
  30:Src/can.c     **** void MX_CAN_Init(void)
  31:Src/can.c     **** {
  27              		.loc 1 31 1 view -0
ARM GAS  C:\Users\wup15j\AppData\Local\Temp\ccIg7IDZ.s 			page 2


  28              		.cfi_startproc
  29              		@ args = 0, pretend = 0, frame = 0
  30              		@ frame_needed = 0, uses_anonymous_args = 0
  31 0000 08B5     		push	{r3, lr}
  32              	.LCFI0:
  33              		.cfi_def_cfa_offset 8
  34              		.cfi_offset 3, -8
  35              		.cfi_offset 14, -4
  32:Src/can.c     **** 
  33:Src/can.c     ****   hcan.Instance = CAN1;
  36              		.loc 1 33 3 view .LVU1
  37              		.loc 1 33 17 is_stmt 0 view .LVU2
  38 0002 0D48     		ldr	r0, .L5
  39 0004 0D4B     		ldr	r3, .L5+4
  40 0006 0360     		str	r3, [r0]
  34:Src/can.c     ****   hcan.Init.Prescaler = 9;
  41              		.loc 1 34 3 is_stmt 1 view .LVU3
  42              		.loc 1 34 23 is_stmt 0 view .LVU4
  43 0008 0923     		movs	r3, #9
  44 000a 4360     		str	r3, [r0, #4]
  35:Src/can.c     ****   hcan.Init.Mode = CAN_MODE_NORMAL;
  45              		.loc 1 35 3 is_stmt 1 view .LVU5
  46              		.loc 1 35 18 is_stmt 0 view .LVU6
  47 000c 0023     		movs	r3, #0
  48 000e 8360     		str	r3, [r0, #8]
  36:Src/can.c     ****   hcan.Init.SyncJumpWidth = CAN_SJW_1TQ;
  49              		.loc 1 36 3 is_stmt 1 view .LVU7
  50              		.loc 1 36 27 is_stmt 0 view .LVU8
  51 0010 C360     		str	r3, [r0, #12]
  37:Src/can.c     ****   hcan.Init.TimeSeg1 = CAN_BS1_3TQ;
  52              		.loc 1 37 3 is_stmt 1 view .LVU9
  53              		.loc 1 37 22 is_stmt 0 view .LVU10
  54 0012 4FF40032 		mov	r2, #131072
  55 0016 0261     		str	r2, [r0, #16]
  38:Src/can.c     ****   hcan.Init.TimeSeg2 = CAN_BS2_4TQ;
  56              		.loc 1 38 3 is_stmt 1 view .LVU11
  57              		.loc 1 38 22 is_stmt 0 view .LVU12
  58 0018 4FF44012 		mov	r2, #3145728
  59 001c 4261     		str	r2, [r0, #20]
  39:Src/can.c     ****   hcan.Init.TimeTriggeredMode = DISABLE;
  60              		.loc 1 39 3 is_stmt 1 view .LVU13
  61              		.loc 1 39 31 is_stmt 0 view .LVU14
  62 001e 0376     		strb	r3, [r0, #24]
  40:Src/can.c     ****   hcan.Init.AutoBusOff = DISABLE;
  63              		.loc 1 40 3 is_stmt 1 view .LVU15
  64              		.loc 1 40 24 is_stmt 0 view .LVU16
  65 0020 4376     		strb	r3, [r0, #25]
  41:Src/can.c     ****   hcan.Init.AutoWakeUp = DISABLE;
  66              		.loc 1 41 3 is_stmt 1 view .LVU17
  67              		.loc 1 41 24 is_stmt 0 view .LVU18
  68 0022 8376     		strb	r3, [r0, #26]
  42:Src/can.c     ****   hcan.Init.AutoRetransmission = DISABLE;
  69              		.loc 1 42 3 is_stmt 1 view .LVU19
  70              		.loc 1 42 32 is_stmt 0 view .LVU20
  71 0024 C376     		strb	r3, [r0, #27]
  43:Src/can.c     ****   hcan.Init.ReceiveFifoLocked = DISABLE;
  72              		.loc 1 43 3 is_stmt 1 view .LVU21
ARM GAS  C:\Users\wup15j\AppData\Local\Temp\ccIg7IDZ.s 			page 3


  73              		.loc 1 43 31 is_stmt 0 view .LVU22
  74 0026 0377     		strb	r3, [r0, #28]
  44:Src/can.c     ****   hcan.Init.TransmitFifoPriority = DISABLE;
  75              		.loc 1 44 3 is_stmt 1 view .LVU23
  76              		.loc 1 44 34 is_stmt 0 view .LVU24
  77 0028 4377     		strb	r3, [r0, #29]
  45:Src/can.c     ****   if (HAL_CAN_Init(&hcan) != HAL_OK)
  78              		.loc 1 45 3 is_stmt 1 view .LVU25
  79              		.loc 1 45 7 is_stmt 0 view .LVU26
  80 002a FFF7FEFF 		bl	HAL_CAN_Init
  81              	.LVL0:
  82              		.loc 1 45 6 view .LVU27
  83 002e 00B9     		cbnz	r0, .L4
  84              	.L1:
  46:Src/can.c     ****   {
  47:Src/can.c     ****     Error_Handler();
  48:Src/can.c     ****   }
  49:Src/can.c     **** }
  85              		.loc 1 49 1 view .LVU28
  86 0030 08BD     		pop	{r3, pc}
  87              	.L4:
  47:Src/can.c     ****   }
  88              		.loc 1 47 5 is_stmt 1 view .LVU29
  89 0032 FFF7FEFF 		bl	Error_Handler
  90              	.LVL1:
  91              		.loc 1 49 1 is_stmt 0 view .LVU30
  92 0036 FBE7     		b	.L1
  93              	.L6:
  94              		.align	2
  95              	.L5:
  96 0038 00000000 		.word	.LANCHOR0
  97 003c 00640040 		.word	1073767424
  98              		.cfi_endproc
  99              	.LFE65:
 101              		.section	.text.HAL_CAN_MspInit,"ax",%progbits
 102              		.align	1
 103              		.global	HAL_CAN_MspInit
 104              		.syntax unified
 105              		.thumb
 106              		.thumb_func
 108              	HAL_CAN_MspInit:
 109              	.LVL2:
 110              	.LFB66:
  50:Src/can.c     **** 
  51:Src/can.c     **** void HAL_CAN_MspInit(CAN_HandleTypeDef *canHandle)
  52:Src/can.c     **** {
 111              		.loc 1 52 1 is_stmt 1 view -0
 112              		.cfi_startproc
 113              		@ args = 0, pretend = 0, frame = 24
 114              		@ frame_needed = 0, uses_anonymous_args = 0
 115              		.loc 1 52 1 is_stmt 0 view .LVU32
 116 0000 30B5     		push	{r4, r5, lr}
 117              	.LCFI1:
 118              		.cfi_def_cfa_offset 12
 119              		.cfi_offset 4, -12
 120              		.cfi_offset 5, -8
 121              		.cfi_offset 14, -4
ARM GAS  C:\Users\wup15j\AppData\Local\Temp\ccIg7IDZ.s 			page 4


 122 0002 87B0     		sub	sp, sp, #28
 123              	.LCFI2:
 124              		.cfi_def_cfa_offset 40
  53:Src/can.c     **** 
  54:Src/can.c     ****   GPIO_InitTypeDef GPIO_InitStruct = {0};
 125              		.loc 1 54 3 is_stmt 1 view .LVU33
 126              		.loc 1 54 20 is_stmt 0 view .LVU34
 127 0004 0023     		movs	r3, #0
 128 0006 0293     		str	r3, [sp, #8]
 129 0008 0393     		str	r3, [sp, #12]
 130 000a 0493     		str	r3, [sp, #16]
 131 000c 0593     		str	r3, [sp, #20]
  55:Src/can.c     ****   if (canHandle->Instance == CAN1)
 132              		.loc 1 55 3 is_stmt 1 view .LVU35
 133              		.loc 1 55 16 is_stmt 0 view .LVU36
 134 000e 0268     		ldr	r2, [r0]
 135              		.loc 1 55 6 view .LVU37
 136 0010 1E4B     		ldr	r3, .L11
 137 0012 9A42     		cmp	r2, r3
 138 0014 01D0     		beq	.L10
 139              	.LVL3:
 140              	.L7:
  56:Src/can.c     ****   {
  57:Src/can.c     ****     /* USER CODE BEGIN CAN1_MspInit 0 */
  58:Src/can.c     **** 
  59:Src/can.c     ****     /* USER CODE END CAN1_MspInit 0 */
  60:Src/can.c     ****     /* CAN1 clock enable */
  61:Src/can.c     ****     __HAL_RCC_CAN1_CLK_ENABLE();
  62:Src/can.c     **** 
  63:Src/can.c     ****     __HAL_RCC_GPIOA_CLK_ENABLE();
  64:Src/can.c     ****     /**CAN GPIO Configuration
  65:Src/can.c     ****     PA11     ------> CAN_RX
  66:Src/can.c     ****     PA12     ------> CAN_TX
  67:Src/can.c     ****     */
  68:Src/can.c     ****     GPIO_InitStruct.Pin = GPIO_PIN_11;
  69:Src/can.c     ****     GPIO_InitStruct.Mode = GPIO_MODE_INPUT;
  70:Src/can.c     ****     GPIO_InitStruct.Pull = GPIO_NOPULL;
  71:Src/can.c     ****     HAL_GPIO_Init(GPIOA, &GPIO_InitStruct);
  72:Src/can.c     **** 
  73:Src/can.c     ****     GPIO_InitStruct.Pin = GPIO_PIN_12;
  74:Src/can.c     ****     GPIO_InitStruct.Mode = GPIO_MODE_AF_PP;
  75:Src/can.c     ****     GPIO_InitStruct.Speed = GPIO_SPEED_FREQ_HIGH;
  76:Src/can.c     ****     HAL_GPIO_Init(GPIOA, &GPIO_InitStruct);
  77:Src/can.c     **** 
  78:Src/can.c     ****     /* CAN1 interrupt Init */
  79:Src/can.c     ****     HAL_NVIC_SetPriority(USB_LP_CAN1_RX0_IRQn, 1, 0);
  80:Src/can.c     ****     HAL_NVIC_EnableIRQ(USB_LP_CAN1_RX0_IRQn);
  81:Src/can.c     ****     HAL_NVIC_SetPriority(CAN1_RX1_IRQn, 2, 0);
  82:Src/can.c     ****     HAL_NVIC_EnableIRQ(CAN1_RX1_IRQn);
  83:Src/can.c     ****     /* USER CODE BEGIN CAN1_MspInit 1 */
  84:Src/can.c     **** 
  85:Src/can.c     ****     /* USER CODE END CAN1_MspInit 1 */
  86:Src/can.c     ****   }
  87:Src/can.c     **** }
 141              		.loc 1 87 1 view .LVU38
 142 0016 07B0     		add	sp, sp, #28
 143              	.LCFI3:
ARM GAS  C:\Users\wup15j\AppData\Local\Temp\ccIg7IDZ.s 			page 5


 144              		.cfi_remember_state
 145              		.cfi_def_cfa_offset 12
 146              		@ sp needed
 147 0018 30BD     		pop	{r4, r5, pc}
 148              	.LVL4:
 149              	.L10:
 150              	.LCFI4:
 151              		.cfi_restore_state
  61:Src/can.c     **** 
 152              		.loc 1 61 5 is_stmt 1 view .LVU39
 153              	.LBB2:
  61:Src/can.c     **** 
 154              		.loc 1 61 5 view .LVU40
  61:Src/can.c     **** 
 155              		.loc 1 61 5 view .LVU41
 156 001a 03F5D633 		add	r3, r3, #109568
 157 001e DA69     		ldr	r2, [r3, #28]
 158 0020 42F00072 		orr	r2, r2, #33554432
 159 0024 DA61     		str	r2, [r3, #28]
  61:Src/can.c     **** 
 160              		.loc 1 61 5 view .LVU42
 161 0026 DA69     		ldr	r2, [r3, #28]
 162 0028 02F00072 		and	r2, r2, #33554432
 163 002c 0092     		str	r2, [sp]
  61:Src/can.c     **** 
 164              		.loc 1 61 5 view .LVU43
 165 002e 009A     		ldr	r2, [sp]
 166              	.LBE2:
  61:Src/can.c     **** 
 167              		.loc 1 61 5 view .LVU44
  63:Src/can.c     ****     /**CAN GPIO Configuration
 168              		.loc 1 63 5 view .LVU45
 169              	.LBB3:
  63:Src/can.c     ****     /**CAN GPIO Configuration
 170              		.loc 1 63 5 view .LVU46
  63:Src/can.c     ****     /**CAN GPIO Configuration
 171              		.loc 1 63 5 view .LVU47
 172 0030 9A69     		ldr	r2, [r3, #24]
 173 0032 42F00402 		orr	r2, r2, #4
 174 0036 9A61     		str	r2, [r3, #24]
  63:Src/can.c     ****     /**CAN GPIO Configuration
 175              		.loc 1 63 5 view .LVU48
 176 0038 9B69     		ldr	r3, [r3, #24]
 177 003a 03F00403 		and	r3, r3, #4
 178 003e 0193     		str	r3, [sp, #4]
  63:Src/can.c     ****     /**CAN GPIO Configuration
 179              		.loc 1 63 5 view .LVU49
 180 0040 019B     		ldr	r3, [sp, #4]
 181              	.LBE3:
  63:Src/can.c     ****     /**CAN GPIO Configuration
 182              		.loc 1 63 5 view .LVU50
  68:Src/can.c     ****     GPIO_InitStruct.Mode = GPIO_MODE_INPUT;
 183              		.loc 1 68 5 view .LVU51
  68:Src/can.c     ****     GPIO_InitStruct.Mode = GPIO_MODE_INPUT;
 184              		.loc 1 68 25 is_stmt 0 view .LVU52
 185 0042 4FF40063 		mov	r3, #2048
 186 0046 0293     		str	r3, [sp, #8]
ARM GAS  C:\Users\wup15j\AppData\Local\Temp\ccIg7IDZ.s 			page 6


  69:Src/can.c     ****     GPIO_InitStruct.Pull = GPIO_NOPULL;
 187              		.loc 1 69 5 is_stmt 1 view .LVU53
  70:Src/can.c     ****     HAL_GPIO_Init(GPIOA, &GPIO_InitStruct);
 188              		.loc 1 70 5 view .LVU54
  71:Src/can.c     **** 
 189              		.loc 1 71 5 view .LVU55
 190 0048 114D     		ldr	r5, .L11+4
 191 004a 02A9     		add	r1, sp, #8
 192 004c 2846     		mov	r0, r5
 193              	.LVL5:
  71:Src/can.c     **** 
 194              		.loc 1 71 5 is_stmt 0 view .LVU56
 195 004e FFF7FEFF 		bl	HAL_GPIO_Init
 196              	.LVL6:
  73:Src/can.c     ****     GPIO_InitStruct.Mode = GPIO_MODE_AF_PP;
 197              		.loc 1 73 5 is_stmt 1 view .LVU57
  73:Src/can.c     ****     GPIO_InitStruct.Mode = GPIO_MODE_AF_PP;
 198              		.loc 1 73 25 is_stmt 0 view .LVU58
 199 0052 4FF48053 		mov	r3, #4096
 200 0056 0293     		str	r3, [sp, #8]
  74:Src/can.c     ****     GPIO_InitStruct.Speed = GPIO_SPEED_FREQ_HIGH;
 201              		.loc 1 74 5 is_stmt 1 view .LVU59
  74:Src/can.c     ****     GPIO_InitStruct.Speed = GPIO_SPEED_FREQ_HIGH;
 202              		.loc 1 74 26 is_stmt 0 view .LVU60
 203 0058 0224     		movs	r4, #2
 204 005a 0394     		str	r4, [sp, #12]
  75:Src/can.c     ****     HAL_GPIO_Init(GPIOA, &GPIO_InitStruct);
 205              		.loc 1 75 5 is_stmt 1 view .LVU61
  75:Src/can.c     ****     HAL_GPIO_Init(GPIOA, &GPIO_InitStruct);
 206              		.loc 1 75 27 is_stmt 0 view .LVU62
 207 005c 0323     		movs	r3, #3
 208 005e 0593     		str	r3, [sp, #20]
  76:Src/can.c     **** 
 209              		.loc 1 76 5 is_stmt 1 view .LVU63
 210 0060 02A9     		add	r1, sp, #8
 211 0062 2846     		mov	r0, r5
 212 0064 FFF7FEFF 		bl	HAL_GPIO_Init
 213              	.LVL7:
  79:Src/can.c     ****     HAL_NVIC_EnableIRQ(USB_LP_CAN1_RX0_IRQn);
 214              		.loc 1 79 5 view .LVU64
 215 0068 0022     		movs	r2, #0
 216 006a 0121     		movs	r1, #1
 217 006c 1420     		movs	r0, #20
 218 006e FFF7FEFF 		bl	HAL_NVIC_SetPriority
 219              	.LVL8:
  80:Src/can.c     ****     HAL_NVIC_SetPriority(CAN1_RX1_IRQn, 2, 0);
 220              		.loc 1 80 5 view .LVU65
 221 0072 1420     		movs	r0, #20
 222 0074 FFF7FEFF 		bl	HAL_NVIC_EnableIRQ
 223              	.LVL9:
  81:Src/can.c     ****     HAL_NVIC_EnableIRQ(CAN1_RX1_IRQn);
 224              		.loc 1 81 5 view .LVU66
 225 0078 0022     		movs	r2, #0
 226 007a 2146     		mov	r1, r4
 227 007c 1520     		movs	r0, #21
 228 007e FFF7FEFF 		bl	HAL_NVIC_SetPriority
 229              	.LVL10:
ARM GAS  C:\Users\wup15j\AppData\Local\Temp\ccIg7IDZ.s 			page 7


  82:Src/can.c     ****     /* USER CODE BEGIN CAN1_MspInit 1 */
 230              		.loc 1 82 5 view .LVU67
 231 0082 1520     		movs	r0, #21
 232 0084 FFF7FEFF 		bl	HAL_NVIC_EnableIRQ
 233              	.LVL11:
 234              		.loc 1 87 1 is_stmt 0 view .LVU68
 235 0088 C5E7     		b	.L7
 236              	.L12:
 237 008a 00BF     		.align	2
 238              	.L11:
 239 008c 00640040 		.word	1073767424
 240 0090 00080140 		.word	1073809408
 241              		.cfi_endproc
 242              	.LFE66:
 244              		.section	.text.HAL_CAN_MspDeInit,"ax",%progbits
 245              		.align	1
 246              		.global	HAL_CAN_MspDeInit
 247              		.syntax unified
 248              		.thumb
 249              		.thumb_func
 251              	HAL_CAN_MspDeInit:
 252              	.LVL12:
 253              	.LFB67:
  88:Src/can.c     **** 
  89:Src/can.c     **** void HAL_CAN_MspDeInit(CAN_HandleTypeDef *canHandle)
  90:Src/can.c     **** {
 254              		.loc 1 90 1 is_stmt 1 view -0
 255              		.cfi_startproc
 256              		@ args = 0, pretend = 0, frame = 0
 257              		@ frame_needed = 0, uses_anonymous_args = 0
 258              		.loc 1 90 1 is_stmt 0 view .LVU70
 259 0000 08B5     		push	{r3, lr}
 260              	.LCFI5:
 261              		.cfi_def_cfa_offset 8
 262              		.cfi_offset 3, -8
 263              		.cfi_offset 14, -4
  91:Src/can.c     **** 
  92:Src/can.c     ****   if (canHandle->Instance == CAN1)
 264              		.loc 1 92 3 is_stmt 1 view .LVU71
 265              		.loc 1 92 16 is_stmt 0 view .LVU72
 266 0002 0268     		ldr	r2, [r0]
 267              		.loc 1 92 6 view .LVU73
 268 0004 0A4B     		ldr	r3, .L17
 269 0006 9A42     		cmp	r2, r3
 270 0008 00D0     		beq	.L16
 271              	.LVL13:
 272              	.L13:
  93:Src/can.c     ****   {
  94:Src/can.c     ****     /* USER CODE BEGIN CAN1_MspDeInit 0 */
  95:Src/can.c     **** 
  96:Src/can.c     ****     /* USER CODE END CAN1_MspDeInit 0 */
  97:Src/can.c     ****     /* Peripheral clock disable */
  98:Src/can.c     ****     __HAL_RCC_CAN1_CLK_DISABLE();
  99:Src/can.c     **** 
 100:Src/can.c     ****     /**CAN GPIO Configuration
 101:Src/can.c     ****     PA11     ------> CAN_RX
 102:Src/can.c     ****     PA12     ------> CAN_TX
ARM GAS  C:\Users\wup15j\AppData\Local\Temp\ccIg7IDZ.s 			page 8


 103:Src/can.c     ****     */
 104:Src/can.c     ****     HAL_GPIO_DeInit(GPIOA, GPIO_PIN_11 | GPIO_PIN_12);
 105:Src/can.c     **** 
 106:Src/can.c     ****     /* CAN1 interrupt Deinit */
 107:Src/can.c     ****     HAL_NVIC_DisableIRQ(USB_LP_CAN1_RX0_IRQn);
 108:Src/can.c     ****     HAL_NVIC_DisableIRQ(CAN1_RX1_IRQn);
 109:Src/can.c     ****     /* USER CODE BEGIN CAN1_MspDeInit 1 */
 110:Src/can.c     **** 
 111:Src/can.c     ****     /* USER CODE END CAN1_MspDeInit 1 */
 112:Src/can.c     ****   }
 113:Src/can.c     **** }
 273              		.loc 1 113 1 view .LVU74
 274 000a 08BD     		pop	{r3, pc}
 275              	.LVL14:
 276              	.L16:
  98:Src/can.c     **** 
 277              		.loc 1 98 5 is_stmt 1 view .LVU75
 278 000c 094A     		ldr	r2, .L17+4
 279 000e D369     		ldr	r3, [r2, #28]
 280 0010 23F00073 		bic	r3, r3, #33554432
 281 0014 D361     		str	r3, [r2, #28]
 104:Src/can.c     **** 
 282              		.loc 1 104 5 view .LVU76
 283 0016 4FF4C051 		mov	r1, #6144
 284 001a 0748     		ldr	r0, .L17+8
 285              	.LVL15:
 104:Src/can.c     **** 
 286              		.loc 1 104 5 is_stmt 0 view .LVU77
 287 001c FFF7FEFF 		bl	HAL_GPIO_DeInit
 288              	.LVL16:
 107:Src/can.c     ****     HAL_NVIC_DisableIRQ(CAN1_RX1_IRQn);
 289              		.loc 1 107 5 is_stmt 1 view .LVU78
 290 0020 1420     		movs	r0, #20
 291 0022 FFF7FEFF 		bl	HAL_NVIC_DisableIRQ
 292              	.LVL17:
 108:Src/can.c     ****     /* USER CODE BEGIN CAN1_MspDeInit 1 */
 293              		.loc 1 108 5 view .LVU79
 294 0026 1520     		movs	r0, #21
 295 0028 FFF7FEFF 		bl	HAL_NVIC_DisableIRQ
 296              	.LVL18:
 297              		.loc 1 113 1 is_stmt 0 view .LVU80
 298 002c EDE7     		b	.L13
 299              	.L18:
 300 002e 00BF     		.align	2
 301              	.L17:
 302 0030 00640040 		.word	1073767424
 303 0034 00100240 		.word	1073876992
 304 0038 00080140 		.word	1073809408
 305              		.cfi_endproc
 306              	.LFE67:
 308              		.section	.text.CAN_Config,"ax",%progbits
 309              		.align	1
 310              		.global	CAN_Config
 311              		.syntax unified
 312              		.thumb
 313              		.thumb_func
 315              	CAN_Config:
ARM GAS  C:\Users\wup15j\AppData\Local\Temp\ccIg7IDZ.s 			page 9


 316              	.LFB68:
 114:Src/can.c     **** 
 115:Src/can.c     **** /* USER CODE BEGIN 1 */
 116:Src/can.c     **** void CAN_Config(void)
 117:Src/can.c     **** {
 317              		.loc 1 117 1 is_stmt 1 view -0
 318              		.cfi_startproc
 319              		@ args = 0, pretend = 0, frame = 40
 320              		@ frame_needed = 0, uses_anonymous_args = 0
 321 0000 10B5     		push	{r4, lr}
 322              	.LCFI6:
 323              		.cfi_def_cfa_offset 8
 324              		.cfi_offset 4, -8
 325              		.cfi_offset 14, -4
 326 0002 8AB0     		sub	sp, sp, #40
 327              	.LCFI7:
 328              		.cfi_def_cfa_offset 48
 118:Src/can.c     ****   CAN_FilterTypeDef sFilterConfig;
 329              		.loc 1 118 3 view .LVU82
 119:Src/can.c     **** 
 120:Src/can.c     ****   /* Configure the CAN Filter */
 121:Src/can.c     ****   sFilterConfig.FilterBank = 0;                      // è¿‡æ»¤å™¨ç¼–å·ï¼Œä½¿ç”¨ä¸€ä¸ªCANï¼Œåˆ™å¯é
 330              		.loc 1 121 3 view .LVU83
 331              		.loc 1 121 28 is_stmt 0 view .LVU84
 332 0004 0023     		movs	r3, #0
 333 0006 0593     		str	r3, [sp, #20]
 122:Src/can.c     ****   sFilterConfig.FilterMode = CAN_FILTERMODE_IDMASK;  // è¿‡æ»¤å™¨æ¨¡å¼ï¼ŒæŽ©ç æ¨¡å¼æˆ–åˆ—è¡¨æ¨¡å
 334              		.loc 1 122 3 is_stmt 1 view .LVU85
 335              		.loc 1 122 28 is_stmt 0 view .LVU86
 336 0008 0693     		str	r3, [sp, #24]
 123:Src/can.c     ****   sFilterConfig.FilterScale = CAN_FILTERSCALE_32BIT; // è¿‡æ»¤å™¨ä½å®½.
 337              		.loc 1 123 3 is_stmt 1 view .LVU87
 338              		.loc 1 123 29 is_stmt 0 view .LVU88
 339 000a 0122     		movs	r2, #1
 340 000c 0792     		str	r2, [sp, #28]
 124:Src/can.c     ****   sFilterConfig.FilterIdHigh = 0x0000;               // è¿‡æ»¤å™¨éªŒè¯ç IDé«˜16ä½ï¼Œ0-0xFFFF
 341              		.loc 1 124 3 is_stmt 1 view .LVU89
 342              		.loc 1 124 30 is_stmt 0 view .LVU90
 343 000e 0093     		str	r3, [sp]
 125:Src/can.c     ****   sFilterConfig.FilterIdLow = 0x0000;                // è¿‡æ»¤å™¨éªŒè¯ç IDä½Ž16ä½ï¼Œ0-0xFFFF
 344              		.loc 1 125 3 is_stmt 1 view .LVU91
 345              		.loc 1 125 29 is_stmt 0 view .LVU92
 346 0010 0193     		str	r3, [sp, #4]
 126:Src/can.c     ****   sFilterConfig.FilterMaskIdHigh = 0x0000;           // è¿‡æ»¤å™¨æŽ©ç IDé«˜16ä½ï¼Œ0-0xFFFF
 347              		.loc 1 126 3 is_stmt 1 view .LVU93
 348              		.loc 1 126 34 is_stmt 0 view .LVU94
 349 0012 0293     		str	r3, [sp, #8]
 127:Src/can.c     ****   sFilterConfig.FilterMaskIdLow = 0x0000;            // è¿‡æ»¤å™¨æŽ©ç IDä½Ž16ä½ï¼Œ0-0xFFFF
 350              		.loc 1 127 3 is_stmt 1 view .LVU95
 351              		.loc 1 127 33 is_stmt 0 view .LVU96
 352 0014 0393     		str	r3, [sp, #12]
 128:Src/can.c     ****   sFilterConfig.FilterFIFOAssignment = CAN_RX_FIFO0; // FIFOxï¼Œ0æˆ–1
 353              		.loc 1 128 3 is_stmt 1 view .LVU97
 354              		.loc 1 128 38 is_stmt 0 view .LVU98
 355 0016 0493     		str	r3, [sp, #16]
 129:Src/can.c     ****   sFilterConfig.FilterActivation = ENABLE;           // ä½¿èƒ½è¿‡æ»¤å™¨
 356              		.loc 1 129 3 is_stmt 1 view .LVU99
ARM GAS  C:\Users\wup15j\AppData\Local\Temp\ccIg7IDZ.s 			page 10


 357              		.loc 1 129 34 is_stmt 0 view .LVU100
 358 0018 0892     		str	r2, [sp, #32]
 130:Src/can.c     ****   sFilterConfig.SlaveStartFilterBank = 14;           // ä»Žè¿‡æ»¤å™¨ç¼–å·ï¼Œ0-27ï¼Œå¯¹äºŽå•CANå®ž
 359              		.loc 1 130 3 is_stmt 1 view .LVU101
 360              		.loc 1 130 38 is_stmt 0 view .LVU102
 361 001a 0E23     		movs	r3, #14
 362 001c 0993     		str	r3, [sp, #36]
 131:Src/can.c     **** 
 132:Src/can.c     ****   if (HAL_CAN_ConfigFilter(&hcan, &sFilterConfig) != HAL_OK)
 363              		.loc 1 132 3 is_stmt 1 view .LVU103
 364              		.loc 1 132 7 is_stmt 0 view .LVU104
 365 001e 074C     		ldr	r4, .L21
 366 0020 6946     		mov	r1, sp
 367 0022 2046     		mov	r0, r4
 368 0024 FFF7FEFF 		bl	HAL_CAN_ConfigFilter
 369              	.LVL19:
 133:Src/can.c     ****   {
 134:Src/can.c     ****     /* Filter configuration Error */
 135:Src/can.c     ****   }
 370              		.loc 1 135 3 is_stmt 1 view .LVU105
 136:Src/can.c     **** 
 137:Src/can.c     ****   /* Start the CAN peripheral */
 138:Src/can.c     ****   if (HAL_CAN_Start(&hcan) != HAL_OK)
 371              		.loc 1 138 3 view .LVU106
 372              		.loc 1 138 7 is_stmt 0 view .LVU107
 373 0028 2046     		mov	r0, r4
 374 002a FFF7FEFF 		bl	HAL_CAN_Start
 375              	.LVL20:
 139:Src/can.c     ****   {
 140:Src/can.c     ****     /* Start Error */
 141:Src/can.c     ****   }
 376              		.loc 1 141 3 is_stmt 1 view .LVU108
 142:Src/can.c     **** 
 143:Src/can.c     ****   /* Activate CAN RX notification */
 144:Src/can.c     ****   if (HAL_CAN_ActivateNotification(&hcan, CAN_IT_RX_FIFO0_MSG_PENDING) != HAL_OK)
 377              		.loc 1 144 3 view .LVU109
 378              		.loc 1 144 7 is_stmt 0 view .LVU110
 379 002e 0221     		movs	r1, #2
 380 0030 2046     		mov	r0, r4
 381 0032 FFF7FEFF 		bl	HAL_CAN_ActivateNotification
 382              	.LVL21:
 145:Src/can.c     ****   {
 146:Src/can.c     ****     /* Notification Error */
 147:Src/can.c     ****   }
 383              		.loc 1 147 3 is_stmt 1 view .LVU111
 148:Src/can.c     **** }
 384              		.loc 1 148 1 is_stmt 0 view .LVU112
 385 0036 0AB0     		add	sp, sp, #40
 386              	.LCFI8:
 387              		.cfi_def_cfa_offset 8
 388              		@ sp needed
 389 0038 10BD     		pop	{r4, pc}
 390              	.L22:
 391 003a 00BF     		.align	2
 392              	.L21:
 393 003c 00000000 		.word	.LANCHOR0
 394              		.cfi_endproc
ARM GAS  C:\Users\wup15j\AppData\Local\Temp\ccIg7IDZ.s 			page 11


 395              	.LFE68:
 397              		.section	.text.CAN_Filter_Config,"ax",%progbits
 398              		.align	1
 399              		.global	CAN_Filter_Config
 400              		.syntax unified
 401              		.thumb
 402              		.thumb_func
 404              	CAN_Filter_Config:
 405              	.LFB69:
 149:Src/can.c     **** 
 150:Src/can.c     **** 
 151:Src/can.c     **** 
 152:Src/can.c     **** void CAN_Filter_Config(void)
 153:Src/can.c     **** {
 406              		.loc 1 153 1 is_stmt 1 view -0
 407              		.cfi_startproc
 408              		@ args = 0, pretend = 0, frame = 40
 409              		@ frame_needed = 0, uses_anonymous_args = 0
 410 0000 00B5     		push	{lr}
 411              	.LCFI9:
 412              		.cfi_def_cfa_offset 4
 413              		.cfi_offset 14, -4
 414 0002 8BB0     		sub	sp, sp, #44
 415              	.LCFI10:
 416              		.cfi_def_cfa_offset 48
 154:Src/can.c     ****   CAN_FilterTypeDef sFilterConfig;
 417              		.loc 1 154 3 view .LVU114
 155:Src/can.c     ****   CAN_FilterRegTypeDef IDH = {0};
 418              		.loc 1 155 3 view .LVU115
 419              		.loc 1 155 24 is_stmt 0 view .LVU116
 420 0004 0023     		movs	r3, #0
 421              	.LVL22:
 156:Src/can.c     ****   CAN_FilterRegTypeDef IDL = {0};
 422              		.loc 1 156 3 is_stmt 1 view .LVU117
 157:Src/can.c     **** 
 158:Src/can.c     **** #if CAN_ID_TYPE_STD_ENABLE
 159:Src/can.c     ****   IDH.Sub.STID = (CAN_BASE_ID >> 16) & 0xFFFF; // æ ‡å‡†IDé«˜16ä½
 423              		.loc 1 159 3 view .LVU118
 160:Src/can.c     ****   IDL.Sub.STID = (CAN_BASE_ID & 0xFFFF);       // æ ‡å‡†IDä½Ž16ä½
 424              		.loc 1 160 3 view .LVU119
 161:Src/can.c     **** #else
 162:Src/can.c     ****   IDH.Sub.EXID = (CAN_BASE_ID >> 16) & 0xFFFF; // æ‰©å±•IDé«˜16ä½
 163:Src/can.c     ****   IDL.Sub.EXID = (CAN_BASE_ID & 0xFFFF);       // æ‰©å±•IDä½Ž16ä½
 164:Src/can.c     ****   IDL.Sub.IDE = 1;                             // æ‰©å±•å¸§æ ‡å¿—ä½ç½®ä½
 165:Src/can.c     **** #endif
 166:Src/can.c     ****   sFilterConfig.FilterBank = 0; // è®¾ç½®è¿‡æ»¤å™¨ç»„ç¼–å·
 425              		.loc 1 166 3 view .LVU120
 426              		.loc 1 166 28 is_stmt 0 view .LVU121
 427 0006 0593     		str	r3, [sp, #20]
 167:Src/can.c     **** #if CAN_FILTER_MODE_MASK_ENABLE
 168:Src/can.c     ****   sFilterConfig.FilterMode = CAN_FILTERMODE_IDMASK; // å±è”½ä½æ¨¡å¼
 428              		.loc 1 168 3 is_stmt 1 view .LVU122
 429              		.loc 1 168 28 is_stmt 0 view .LVU123
 430 0008 0693     		str	r3, [sp, #24]
 169:Src/can.c     **** #else
 170:Src/can.c     ****   sFilterConfig.FilterMode = CAN_FILTERMODE_IDLIST; // åˆ—è¡¨æ¨¡å¼
 171:Src/can.c     **** #endif
ARM GAS  C:\Users\wup15j\AppData\Local\Temp\ccIg7IDZ.s 			page 12


 172:Src/can.c     ****   sFilterConfig.FilterScale = CAN_FILTERSCALE_32BIT; // 32ä½å®½
 431              		.loc 1 172 3 is_stmt 1 view .LVU124
 432              		.loc 1 172 29 is_stmt 0 view .LVU125
 433 000a 0122     		movs	r2, #1
 434 000c 0792     		str	r2, [sp, #28]
 173:Src/can.c     ****   sFilterConfig.FilterIdHigh = IDH.value;            // æ ‡è¯†ç¬¦å¯„å­˜å™¨ä¸€IDé«˜åå…­ä½ï¼Œæ”¾å…
 435              		.loc 1 173 3 is_stmt 1 view .LVU126
 436              		.loc 1 173 30 is_stmt 0 view .LVU127
 437 000e 0093     		str	r3, [sp]
 174:Src/can.c     ****   sFilterConfig.FilterIdLow = IDL.value;             // æ ‡è¯†ç¬¦å¯„å­˜å™¨ä¸€IDä½Žåå…­ä½ï¼Œæ”¾å…
 438              		.loc 1 174 3 is_stmt 1 view .LVU128
 439              		.loc 1 174 29 is_stmt 0 view .LVU129
 440 0010 0193     		str	r3, [sp, #4]
 175:Src/can.c     ****   sFilterConfig.FilterMaskIdHigh = IDH.value;        // æ ‡è¯†ç¬¦å¯„å­˜å™¨äºŒIDé«˜åå…­ä½ï¼Œæ”¾å…
 441              		.loc 1 175 3 is_stmt 1 view .LVU130
 442              		.loc 1 175 34 is_stmt 0 view .LVU131
 443 0012 0293     		str	r3, [sp, #8]
 176:Src/can.c     ****   sFilterConfig.FilterMaskIdLow = IDL.value;         // æ ‡è¯†ç¬¦å¯„å­˜å™¨äºŒIDä½Žåå…­ä½ï¼Œæ”¾å…
 444              		.loc 1 176 3 is_stmt 1 view .LVU132
 445              		.loc 1 176 33 is_stmt 0 view .LVU133
 446 0014 0393     		str	r3, [sp, #12]
 177:Src/can.c     ****   sFilterConfig.FilterFIFOAssignment = CAN_RX_FIFO0; // è¿‡æ»¤å™¨ç»„å…³è”åˆ°FIFO0
 447              		.loc 1 177 3 is_stmt 1 view .LVU134
 448              		.loc 1 177 38 is_stmt 0 view .LVU135
 449 0016 0493     		str	r3, [sp, #16]
 178:Src/can.c     ****   sFilterConfig.FilterActivation = ENABLE;           // æ¿€æ´»è¿‡æ»¤å™¨
 450              		.loc 1 178 3 is_stmt 1 view .LVU136
 451              		.loc 1 178 34 is_stmt 0 view .LVU137
 452 0018 0892     		str	r2, [sp, #32]
 179:Src/can.c     ****   sFilterConfig.SlaveStartFilterBank = 14;           // è®¾ç½®ä»ŽCANçš„èµ·å§‹è¿‡æ»¤å™¨ç¼–å·ï¼Œæœ¬å
 453              		.loc 1 179 3 is_stmt 1 view .LVU138
 454              		.loc 1 179 38 is_stmt 0 view .LVU139
 455 001a 0E23     		movs	r3, #14
 456              	.LVL23:
 457              		.loc 1 179 38 view .LVU140
 458 001c 0993     		str	r3, [sp, #36]
 180:Src/can.c     ****   if (HAL_CAN_ConfigFilter(&hcan, &sFilterConfig) != HAL_OK)
 459              		.loc 1 180 3 is_stmt 1 view .LVU141
 460              		.loc 1 180 7 is_stmt 0 view .LVU142
 461 001e 6946     		mov	r1, sp
 462 0020 0448     		ldr	r0, .L27
 463 0022 FFF7FEFF 		bl	HAL_CAN_ConfigFilter
 464              	.LVL24:
 465              		.loc 1 180 6 view .LVU143
 466 0026 10B9     		cbnz	r0, .L26
 467              	.L23:
 181:Src/can.c     ****   {
 182:Src/can.c     ****     Error_Handler();
 183:Src/can.c     ****   }
 184:Src/can.c     **** }
 468              		.loc 1 184 1 view .LVU144
 469 0028 0BB0     		add	sp, sp, #44
 470              	.LCFI11:
 471              		.cfi_remember_state
 472              		.cfi_def_cfa_offset 4
 473              		@ sp needed
 474 002a 5DF804FB 		ldr	pc, [sp], #4
ARM GAS  C:\Users\wup15j\AppData\Local\Temp\ccIg7IDZ.s 			page 13


 475              	.L26:
 476              	.LCFI12:
 477              		.cfi_restore_state
 182:Src/can.c     ****   }
 478              		.loc 1 182 5 is_stmt 1 view .LVU145
 479 002e FFF7FEFF 		bl	Error_Handler
 480              	.LVL25:
 481              		.loc 1 184 1 is_stmt 0 view .LVU146
 482 0032 F9E7     		b	.L23
 483              	.L28:
 484              		.align	2
 485              	.L27:
 486 0034 00000000 		.word	.LANCHOR0
 487              		.cfi_endproc
 488              	.LFE69:
 490              		.section	.text.CAN_Transmit,"ax",%progbits
 491              		.align	1
 492              		.global	CAN_Transmit
 493              		.syntax unified
 494              		.thumb
 495              		.thumb_func
 497              	CAN_Transmit:
 498              	.LVL26:
 499              	.LFB70:
 185:Src/can.c     **** 
 186:Src/can.c     **** uint8_t CAN_Transmit(CAN_TxPacketTypeDef *packet)
 187:Src/can.c     **** {
 500              		.loc 1 187 1 is_stmt 1 view -0
 501              		.cfi_startproc
 502              		@ args = 0, pretend = 0, frame = 0
 503              		@ frame_needed = 0, uses_anonymous_args = 0
 504              		.loc 1 187 1 is_stmt 0 view .LVU148
 505 0000 08B5     		push	{r3, lr}
 506              	.LCFI13:
 507              		.cfi_def_cfa_offset 8
 508              		.cfi_offset 3, -8
 509              		.cfi_offset 14, -4
 510 0002 0346     		mov	r3, r0
 188:Src/can.c     ****   if (HAL_CAN_AddTxMessage(&hcan, &packet->hdr, packet->payload, &packet->mailbox) != HAL_OK)
 511              		.loc 1 188 3 is_stmt 1 view .LVU149
 512              		.loc 1 188 7 is_stmt 0 view .LVU150
 513 0004 00F11C02 		add	r2, r0, #28
 514 0008 011D     		adds	r1, r0, #4
 515 000a 0348     		ldr	r0, .L34
 516              	.LVL27:
 517              		.loc 1 188 7 view .LVU151
 518 000c FFF7FEFF 		bl	HAL_CAN_AddTxMessage
 519              	.LVL28:
 520              		.loc 1 188 6 view .LVU152
 521 0010 00B9     		cbnz	r0, .L33
 522              	.L30:
 189:Src/can.c     ****     return 1;
 190:Src/can.c     ****   return 0;
 191:Src/can.c     **** }
 523              		.loc 1 191 1 view .LVU153
 524 0012 08BD     		pop	{r3, pc}
 525              	.L33:
ARM GAS  C:\Users\wup15j\AppData\Local\Temp\ccIg7IDZ.s 			page 14


 189:Src/can.c     ****     return 1;
 526              		.loc 1 189 12 view .LVU154
 527 0014 0120     		movs	r0, #1
 528 0016 FCE7     		b	.L30
 529              	.L35:
 530              		.align	2
 531              	.L34:
 532 0018 00000000 		.word	.LANCHOR0
 533              		.cfi_endproc
 534              	.LFE70:
 536              		.section	.text.CAN_Init,"ax",%progbits
 537              		.align	1
 538              		.global	CAN_Init
 539              		.syntax unified
 540              		.thumb
 541              		.thumb_func
 543              	CAN_Init:
 544              	.LFB71:
 192:Src/can.c     **** 
 193:Src/can.c     **** void CAN_Init(void)
 194:Src/can.c     **** {
 545              		.loc 1 194 1 is_stmt 1 view -0
 546              		.cfi_startproc
 547              		@ args = 0, pretend = 0, frame = 0
 548              		@ frame_needed = 0, uses_anonymous_args = 0
 549 0000 10B5     		push	{r4, lr}
 550              	.LCFI14:
 551              		.cfi_def_cfa_offset 8
 552              		.cfi_offset 4, -8
 553              		.cfi_offset 14, -4
 195:Src/can.c     ****   MX_CAN_Init();
 554              		.loc 1 195 3 view .LVU156
 555 0002 FFF7FEFF 		bl	MX_CAN_Init
 556              	.LVL29:
 196:Src/can.c     ****   CAN_Filter_Config();
 557              		.loc 1 196 3 view .LVU157
 558 0006 FFF7FEFF 		bl	CAN_Filter_Config
 559              	.LVL30:
 197:Src/can.c     ****   HAL_CAN_Start(&hcan);
 560              		.loc 1 197 3 view .LVU158
 561 000a 044C     		ldr	r4, .L38
 562 000c 2046     		mov	r0, r4
 563 000e FFF7FEFF 		bl	HAL_CAN_Start
 564              	.LVL31:
 198:Src/can.c     ****   HAL_CAN_ActivateNotification(&hcan, CAN_IT_RX_FIFO0_MSG_PENDING); // ä½¿èƒ½CANæŽ¥æ”¶ä¸­æ–­
 565              		.loc 1 198 3 view .LVU159
 566 0012 0221     		movs	r1, #2
 567 0014 2046     		mov	r0, r4
 568 0016 FFF7FEFF 		bl	HAL_CAN_ActivateNotification
 569              	.LVL32:
 199:Src/can.c     **** }
 570              		.loc 1 199 1 is_stmt 0 view .LVU160
 571 001a 10BD     		pop	{r4, pc}
 572              	.L39:
 573              		.align	2
 574              	.L38:
 575 001c 00000000 		.word	.LANCHOR0
ARM GAS  C:\Users\wup15j\AppData\Local\Temp\ccIg7IDZ.s 			page 15


 576              		.cfi_endproc
 577              	.LFE71:
 579              		.section	.text.HAL_CAN_RxFifo0MsgPendingCallback,"ax",%progbits
 580              		.align	1
 581              		.global	HAL_CAN_RxFifo0MsgPendingCallback
 582              		.syntax unified
 583              		.thumb
 584              		.thumb_func
 586              	HAL_CAN_RxFifo0MsgPendingCallback:
 587              	.LVL33:
 588              	.LFB72:
 200:Src/can.c     **** 
 201:Src/can.c     **** void HAL_CAN_RxFifo0MsgPendingCallback(CAN_HandleTypeDef *canHandle)
 202:Src/can.c     **** {
 589              		.loc 1 202 1 is_stmt 1 view -0
 590              		.cfi_startproc
 591              		@ args = 0, pretend = 0, frame = 0
 592              		@ frame_needed = 0, uses_anonymous_args = 0
 203:Src/can.c     ****   static CAN_RxPacketTypeDef packet;
 593              		.loc 1 203 3 view .LVU162
 204:Src/can.c     **** 
 205:Src/can.c     ****   // CANæ•°æ®æŽ¥æ”¶
 206:Src/can.c     ****   if (canHandle->Instance == hcan.Instance)
 594              		.loc 1 206 3 view .LVU163
 595              		.loc 1 206 16 is_stmt 0 view .LVU164
 596 0000 0268     		ldr	r2, [r0]
 597              		.loc 1 206 34 view .LVU165
 598 0002 0D4B     		ldr	r3, .L50
 599 0004 1B68     		ldr	r3, [r3]
 600              		.loc 1 206 6 view .LVU166
 601 0006 9A42     		cmp	r2, r3
 602 0008 00D0     		beq	.L49
 603 000a 7047     		bx	lr
 604              	.L49:
 202:Src/can.c     ****   static CAN_RxPacketTypeDef packet;
 605              		.loc 1 202 1 view .LVU167
 606 000c 10B5     		push	{r4, lr}
 607              	.LCFI15:
 608              		.cfi_def_cfa_offset 8
 609              		.cfi_offset 4, -8
 610              		.cfi_offset 14, -4
 611 000e 0446     		mov	r4, r0
 207:Src/can.c     ****   {
 208:Src/can.c     ****     if (HAL_CAN_GetRxMessage(canHandle, CAN_RX_FIFO0, &packet.hdr, packet.payload) == HAL_OK) // èŽ
 612              		.loc 1 208 5 is_stmt 1 view .LVU168
 613              		.loc 1 208 9 is_stmt 0 view .LVU169
 614 0010 0A4A     		ldr	r2, .L50+4
 615 0012 02F11C03 		add	r3, r2, #28
 616 0016 0021     		movs	r1, #0
 617 0018 FFF7FEFF 		bl	HAL_CAN_GetRxMessage
 618              	.LVL34:
 619              		.loc 1 208 8 view .LVU170
 620 001c 50B1     		cbz	r0, .L44
 621              	.L40:
 209:Src/can.c     ****     {
 210:Src/can.c     ****       for (int i = 0; i < packet.hdr.DLC; i++)
 211:Src/can.c     ****       {
ARM GAS  C:\Users\wup15j\AppData\Local\Temp\ccIg7IDZ.s 			page 16


 212:Src/can.c     ****       }
 213:Src/can.c     ****       HAL_CAN_ActivateNotification(canHandle, CAN_IT_RX_FIFO0_MSG_PENDING); // å†æ¬¡ä½¿èƒ½FIFO0æŽ¥
 214:Src/can.c     ****     }
 215:Src/can.c     ****   }
 216:Src/can.c     **** }
 622              		.loc 1 216 1 view .LVU171
 623 001e 10BD     		pop	{r4, pc}
 624              	.LVL35:
 625              	.L43:
 626              	.LBB4:
 212:Src/can.c     ****       HAL_CAN_ActivateNotification(canHandle, CAN_IT_RX_FIFO0_MSG_PENDING); // å†æ¬¡ä½¿èƒ½FIFO0æŽ¥
 627              		.loc 1 212 7 is_stmt 1 discriminator 3 view .LVU172
 210:Src/can.c     ****       {
 628              		.loc 1 210 43 discriminator 3 view .LVU173
 210:Src/can.c     ****       {
 629              		.loc 1 210 44 is_stmt 0 discriminator 3 view .LVU174
 630 0020 0133     		adds	r3, r3, #1
 631              	.LVL36:
 632              	.L42:
 210:Src/can.c     ****       {
 633              		.loc 1 210 23 is_stmt 1 discriminator 1 view .LVU175
 210:Src/can.c     ****       {
 634              		.loc 1 210 37 is_stmt 0 discriminator 1 view .LVU176
 635 0022 064A     		ldr	r2, .L50+4
 636 0024 1269     		ldr	r2, [r2, #16]
 210:Src/can.c     ****       {
 637              		.loc 1 210 7 discriminator 1 view .LVU177
 638 0026 9A42     		cmp	r2, r3
 639 0028 FAD8     		bhi	.L43
 640              	.LBE4:
 213:Src/can.c     ****     }
 641              		.loc 1 213 7 is_stmt 1 view .LVU178
 642 002a 0221     		movs	r1, #2
 643 002c 2046     		mov	r0, r4
 644 002e FFF7FEFF 		bl	HAL_CAN_ActivateNotification
 645              	.LVL37:
 646              		.loc 1 216 1 is_stmt 0 view .LVU179
 647 0032 F4E7     		b	.L40
 648              	.L44:
 649              	.LBB5:
 210:Src/can.c     ****       {
 650              		.loc 1 210 16 view .LVU180
 651 0034 0023     		movs	r3, #0
 652 0036 F4E7     		b	.L42
 653              	.L51:
 654              		.align	2
 655              	.L50:
 656 0038 00000000 		.word	.LANCHOR0
 657 003c 00000000 		.word	.LANCHOR1
 658              	.LBE5:
 659              		.cfi_endproc
 660              	.LFE72:
 662              		.section	.text.CAN_SetTxPacket,"ax",%progbits
 663              		.align	1
 664              		.global	CAN_SetTxPacket
 665              		.syntax unified
 666              		.thumb
ARM GAS  C:\Users\wup15j\AppData\Local\Temp\ccIg7IDZ.s 			page 17


 667              		.thumb_func
 669              	CAN_SetTxPacket:
 670              	.LFB73:
 217:Src/can.c     **** 
 218:Src/can.c     **** CAN_TxPacketTypeDef g_CanTxPacket;
 219:Src/can.c     **** 
 220:Src/can.c     **** void CAN_SetTxPacket(void)
 221:Src/can.c     **** {
 671              		.loc 1 221 1 is_stmt 1 view -0
 672              		.cfi_startproc
 673              		@ args = 0, pretend = 0, frame = 0
 674              		@ frame_needed = 0, uses_anonymous_args = 0
 675              		@ link register save eliminated.
 222:Src/can.c     ****   g_CanTxPacket.hdr.StdId = 0x321;      // æ ‡å‡†ID
 676              		.loc 1 222 3 view .LVU182
 677              		.loc 1 222 27 is_stmt 0 view .LVU183
 678 0000 084A     		ldr	r2, .L55
 679 0002 40F22133 		movw	r3, #801
 680 0006 5360     		str	r3, [r2, #4]
 223:Src/can.c     ****                                         //  g_CanTxPacket.hdr.ExtId = 0x10F01234;       // æ‰©å±•ID
 224:Src/can.c     ****   g_CanTxPacket.hdr.IDE = CAN_ID_STD;   // æ ‡å‡†IDç±»åž‹
 681              		.loc 1 224 3 is_stmt 1 view .LVU184
 682              		.loc 1 224 25 is_stmt 0 view .LVU185
 683 0008 0023     		movs	r3, #0
 684 000a D360     		str	r3, [r2, #12]
 225:Src/can.c     ****                                         //  g_CanTxPacket.hdr.IDE = CAN_ID_EXT;         // æ‰©å±•ID
 226:Src/can.c     ****   g_CanTxPacket.hdr.DLC = 8;            // æ•°æ®é•¿åº¦
 685              		.loc 1 226 3 is_stmt 1 view .LVU186
 686              		.loc 1 226 25 is_stmt 0 view .LVU187
 687 000c 0821     		movs	r1, #8
 688 000e 5161     		str	r1, [r2, #20]
 227:Src/can.c     ****   g_CanTxPacket.hdr.RTR = CAN_RTR_DATA; // æ•°æ®å¸§
 689              		.loc 1 227 3 is_stmt 1 view .LVU188
 690              		.loc 1 227 25 is_stmt 0 view .LVU189
 691 0010 1361     		str	r3, [r2, #16]
 228:Src/can.c     ****                                         //  g_CanTxPacket.hdr.RTR = CAN_RTR_REMOTE;     // è¿œç¨‹å¸
 229:Src/can.c     ****   g_CanTxPacket.hdr.TransmitGlobalTime = DISABLE;
 692              		.loc 1 229 3 is_stmt 1 view .LVU190
 693              		.loc 1 229 40 is_stmt 0 view .LVU191
 694 0012 1376     		strb	r3, [r2, #24]
 230:Src/can.c     **** 
 231:Src/can.c     ****   for (int i = 0; i < 8; i++)
 695              		.loc 1 231 3 is_stmt 1 view .LVU192
 696              	.LBB6:
 697              		.loc 1 231 8 view .LVU193
 698              	.LVL38:
 699              		.loc 1 231 3 is_stmt 0 view .LVU194
 700 0014 03E0     		b	.L53
 701              	.LVL39:
 702              	.L54:
 232:Src/can.c     ****   {
 233:Src/can.c     ****     g_CanTxPacket.payload[i] = i;
 703              		.loc 1 233 5 is_stmt 1 discriminator 3 view .LVU195
 704              		.loc 1 233 30 is_stmt 0 discriminator 3 view .LVU196
 705 0016 034A     		ldr	r2, .L55
 706 0018 1A44     		add	r2, r2, r3
 707 001a 1377     		strb	r3, [r2, #28]
ARM GAS  C:\Users\wup15j\AppData\Local\Temp\ccIg7IDZ.s 			page 18


 231:Src/can.c     ****   {
 708              		.loc 1 231 26 is_stmt 1 discriminator 3 view .LVU197
 231:Src/can.c     ****   {
 709              		.loc 1 231 27 is_stmt 0 discriminator 3 view .LVU198
 710 001c 0133     		adds	r3, r3, #1
 711              	.LVL40:
 712              	.L53:
 231:Src/can.c     ****   {
 713              		.loc 1 231 19 is_stmt 1 discriminator 1 view .LVU199
 231:Src/can.c     ****   {
 714              		.loc 1 231 3 is_stmt 0 discriminator 1 view .LVU200
 715 001e 072B     		cmp	r3, #7
 716 0020 F9DD     		ble	.L54
 717              	.LBE6:
 234:Src/can.c     ****   }
 235:Src/can.c     **** }
 718              		.loc 1 235 1 view .LVU201
 719 0022 7047     		bx	lr
 720              	.L56:
 721              		.align	2
 722              	.L55:
 723 0024 00000000 		.word	.LANCHOR2
 724              		.cfi_endproc
 725              	.LFE73:
 727              		.global	g_CanTxPacket
 728              		.global	hcan
 729              		.section	.bss.g_CanTxPacket,"aw",%nobits
 730              		.align	2
 731              		.set	.LANCHOR2,. + 0
 734              	g_CanTxPacket:
 735 0000 00000000 		.space	36
 735      00000000 
 735      00000000 
 735      00000000 
 735      00000000 
 736              		.section	.bss.hcan,"aw",%nobits
 737              		.align	2
 738              		.set	.LANCHOR0,. + 0
 741              	hcan:
 742 0000 00000000 		.space	40
 742      00000000 
 742      00000000 
 742      00000000 
 742      00000000 
 743              		.section	.bss.packet.0,"aw",%nobits
 744              		.align	2
 745              		.set	.LANCHOR1,. + 0
 748              	packet.0:
 749 0000 00000000 		.space	36
 749      00000000 
 749      00000000 
 749      00000000 
 749      00000000 
 750              		.text
 751              	.Letext0:
 752              		.file 2 "c:\\program files (x86)\\gnu arm embedded toolchain\\10 2021.10\\arm-none-eabi\\include\\
 753              		.file 3 "c:\\program files (x86)\\gnu arm embedded toolchain\\10 2021.10\\arm-none-eabi\\include\\
ARM GAS  C:\Users\wup15j\AppData\Local\Temp\ccIg7IDZ.s 			page 19


 754              		.file 4 "Drivers/CMSIS/Device/ST/STM32F1xx/Include/stm32f103x6.h"
 755              		.file 5 "Drivers/CMSIS/Device/ST/STM32F1xx/Include/stm32f1xx.h"
 756              		.file 6 "Drivers/STM32F1xx_HAL_Driver/Inc/stm32f1xx_hal_def.h"
 757              		.file 7 "Drivers/STM32F1xx_HAL_Driver/Inc/stm32f1xx_hal_gpio.h"
 758              		.file 8 "Drivers/STM32F1xx_HAL_Driver/Inc/stm32f1xx_hal_can.h"
 759              		.file 9 "Inc/can.h"
 760              		.file 10 "Inc/main.h"
 761              		.file 11 "Drivers/STM32F1xx_HAL_Driver/Inc/stm32f1xx_hal_cortex.h"
ARM GAS  C:\Users\wup15j\AppData\Local\Temp\ccIg7IDZ.s 			page 20

